; Function Attrs: nounwind uwtable
define dso_local void @llvm_emit_block(ptr nocapture noundef %0, ptr noundef %1) local_unnamed_addr #0 {
  %3 = getelementptr inbounds i8, ptr %0, i64 48
  %4 = load ptr, ptr %3, align 8
  tail call void @LLVMAppendExistingBasicBlock(ptr noundef %4, ptr noundef %1) #7
  %5 = getelementptr inbounds i8, ptr %0, i64 64
  %6 = load ptr, ptr %5, align 8
  tail call void @LLVMPositionBuilderAtEnd(ptr noundef %6, ptr noundef %1) #7
  %7 = getelementptr inbounds i8, ptr %0, i64 80
  store ptr %1, ptr %7, align 8
  %8 = getelementptr inbounds i8, ptr %0, i64 424
  %9 = load i8, ptr %8, align 8
  %10 = and i8 %9, -2
  store i8 %10, ptr %8, align 8
  ret void
}